; Function Attrs: nounwind uwtable
define dso_local range(i32 -2147483647, -2147483648) i32 @uv_tty_get_winsize(ptr noundef readonly captures(none) %0, ptr noundef writeonly captures(none) %1, ptr noundef writeonly captures(none) %2) local_unnamed_addr #0 {
  %4 = alloca %struct.winsize, align 2
  call void @llvm.lifetime.start.p0(i64 8, ptr nonnull %4) #8
  %5 = getelementptr inbounds nuw i8, ptr %0, i64 184
  br label %6

6:                                                ; preds = %10, %3
  %7 = load i32, ptr %5, align 8
  %8 = call i32 (i32, i64, ...) @ioctl(i32 noundef %7, i64 noundef 21523, ptr noundef nonnull %4) #8
  %9 = icmp eq i32 %8, -1
  br i1 %9, label %10, label %.critedge5

10:                                               ; preds = %6
  %11 = tail call ptr @__errno_location() #9
  %12 = load i32, ptr %11, align 4
  %13 = icmp eq i32 %12, 4
  br i1 %13, label %6, label %.critedge

.critedge:                                        ; preds = %10
  %14 = sub nsw i32 0, %12
  br label %20

.critedge5:                                       ; preds = %6
  %15 = getelementptr inbounds nuw i8, ptr %4, i64 2
  %16 = load i16, ptr %15, align 2
  %17 = zext i16 %16 to i32
  store i32 %17, ptr %1, align 4
  %18 = load i16, ptr %4, align 2
  %19 = zext i16 %18 to i32
  store i32 %19, ptr %2, align 4
  br label %20

20:                                               ; preds = %.critedge5, %.critedge
  %.0 = phi i32 [ %14, %.critedge ], [ 0, %.critedge5 ]
  call void @llvm.lifetime.end.p0(i64 8, ptr nonnull %4) #8
  ret i32 %.0
}